target datalayout = "e-m:e-p270:32:32-p271:32:32-p272:64:64-i64:64-i128:128-f80:128-n8:16:32:64-S128"
target triple = "x86_64-pc-linux-gnu"

%struct._BBuf = type { ptr, i32, i32 }

; Function Attrs: nounwind sspstrong uwtable
define dso_local i32 @onig_bbuf_init(ptr noundef %0, i64 noundef %1) #0 {
  %3 = alloca i32, align 4
  %4 = alloca ptr, align 8
  %5 = alloca i64, align 8
  store ptr %0, ptr %4, align 8, !tbaa !11
  store i64 %1, ptr %5, align 8, !tbaa !14
  %6 = load i64, ptr %5, align 8, !tbaa !14
  %7 = icmp ule i64 %6, 0
  br i1 %7, label %8, label %11

8:                                                ; preds = %2
  store i64 0, ptr %5, align 8, !tbaa !14
  %9 = load ptr, ptr %4, align 8, !tbaa !11
  %10 = getelementptr inbounds nuw %struct._BBuf, ptr %9, i32 0, i32 0
  store ptr null, ptr %10, align 8, !tbaa !16
  br label %22

11:                                               ; preds = %2
  %12 = load i64, ptr %5, align 8, !tbaa !14
  %13 = call noalias ptr @malloc(i64 noundef %12) #10
  %14 = load ptr, ptr %4, align 8, !tbaa !11
  %15 = getelementptr inbounds nuw %struct._BBuf, ptr %14, i32 0, i32 0
  store ptr %13, ptr %15, align 8, !tbaa !16
  %16 = load ptr, ptr %4, align 8, !tbaa !11
  %17 = getelementptr inbounds nuw %struct._BBuf, ptr %16, i32 0, i32 0
  %18 = load ptr, ptr %17, align 8, !tbaa !16
  %19 = icmp eq ptr %18, null
  br i1 %19, label %20, label %21

20:                                               ; preds = %11
  store i32 -5, ptr %3, align 4
  br label %29

21:                                               ; preds = %11
  br label %22

22:                                               ; preds = %21, %8
  %23 = load i64, ptr %5, align 8, !tbaa !14
  %24 = trunc i64 %23 to i32
  %25 = load ptr, ptr %4, align 8, !tbaa !11
  %26 = getelementptr inbounds nuw %struct._BBuf, ptr %25, i32 0, i32 2
  store i32 %24, ptr %26, align 4, !tbaa !19
  %27 = load ptr, ptr %4, align 8, !tbaa !11
  %28 = getelementptr inbounds nuw %struct._BBuf, ptr %27, i32 0, i32 1
  store i32 0, ptr %28, align 8, !tbaa !20
  store i32 0, ptr %3, align 4
  br label %29

29:                                               ; preds = %22, %20
  %30 = load i32, ptr %3, align 4
  ret i32 %30
}