; Function Attrs: mustprogress nofree nounwind sspstrong willreturn memory(argmem: write, inaccessiblemem: readwrite) uwtable
define dso_local range(i32 -5, 1) i32 @onig_bbuf_init(ptr noundef writeonly captures(none) initializes((0, 8)) %0, i64 noundef %1) local_unnamed_addr #2 {
  %3 = icmp eq i64 %1, 0
  br i1 %3, label %4, label %5

4:                                                ; preds = %2
  store ptr null, ptr %0, align 8, !tbaa !11
  br label %8

5:                                                ; preds = %2
  %6 = tail call noalias ptr @malloc(i64 noundef %1) #19
  store ptr %6, ptr %0, align 8, !tbaa !11
  %7 = icmp eq ptr %6, null
  br i1 %7, label %12, label %8

8:                                                ; preds = %5, %4
  %9 = trunc i64 %1 to i32
  %10 = getelementptr inbounds nuw i8, ptr %0, i64 12
  store i32 %9, ptr %10, align 4, !tbaa !15
  %11 = getelementptr inbounds nuw i8, ptr %0, i64 8
  store i32 0, ptr %11, align 8, !tbaa !16
  br label %12

12:                                               ; preds = %5, %8
  %.08 = phi i32 [ 0, %8 ], [ -5, %5 ]
  ret i32 %.08
}